target datalayout = "e-m:e-p270:32:32-p271:32:32-p272:64:64-i64:64-i128:128-f80:128-n8:16:32:64-S128"
target triple = "x86_64-pc-linux-gnu"

%struct.PaAlsaStream = type { %struct.PaUtilStreamRepresentation, %struct.PaUtilCpuLoadMeasurer, %struct.PaUtilBufferProcessor, %struct.PaUnixThread, i64, i64, i32, i32, i32, i32, ptr, i32, i32, i32, i32, %struct.PaUnixMutex, i32, double, double, %struct.PaAlsaStreamComponent, %struct.PaAlsaStreamComponent }
%struct.PaUtilStreamRepresentation = type { i64, ptr, ptr, ptr, ptr, ptr, %struct.PaStreamInfo }
%struct.PaStreamInfo = type { i32, double, double, double }
%struct.PaUtilCpuLoadMeasurer = type { double, double, double }
%struct.PaUtilBufferProcessor = type { i64, i64, i32, i32, i32, i32, i64, i32, i32, i32, i32, ptr, ptr, i32, i32, i32, i32, ptr, ptr, i64, i64, ptr, ptr, i64, ptr, ptr, i64, ptr, i64, i32, [2 x i64], [2 x ptr], i32, [2 x i64], [2 x ptr], %struct.PaUtilTriangularDitherGenerator, double, ptr, ptr }
%struct.PaUtilTriangularDitherGenerator = type { i32, i32, i32 }
%struct.PaUnixThread = type { i64, i32, i32, i32, %struct.PaUnixMutex, %union.pthread_cond_t, i32, i32 }
%union.pthread_cond_t = type { %struct.__pthread_cond_s }
%struct.__pthread_cond_s = type { %union.__atomic_wide_counter, %union.__atomic_wide_counter, [2 x i32], [2 x i32], i32, i32, [2 x i32] }
%union.__atomic_wide_counter = type { i64 }
%struct.PaUnixMutex = type { %union.pthread_mutex_t }
%union.pthread_mutex_t = type { %struct.__pthread_mutex_s }
%struct.__pthread_mutex_s = type { i32, i32, i32, i32, i32, i16, i16, %struct.__pthread_internal_list }
%struct.__pthread_internal_list = type { ptr, ptr }
%struct.PaAlsaStreamComponent = type { i64, i32, i32, i32, i32, i32, ptr, i32, i32, i32, i32, ptr, i64, i64, i32, i32, i32, ptr, i64, i32, ptr }
%struct.timeval = type { i64, i64 }
%struct.timespec = type { i64, i64 }

@paUtilErr_ = internal global i32 0, align 4
@alsa_snd_pcm_recover = internal global ptr null, align 8
@alsa_snd_pcm_status = internal global ptr null, align 8
@alsa_snd_pcm_status_sizeof = internal global ptr null, align 8
@alsa_snd_pcm_status_get_htstamp = internal global ptr null, align 8
@alsa_snd_pcm_status_get_state = internal global ptr null, align 8
@alsa_snd_pcm_status_get_trigger_tstamp = internal global ptr null, align 8
@alsa_snd_pcm_status_get_trigger_htstamp = internal global ptr null, align 8
@alsa_snd_pcm_status_get_delay = internal global ptr null, align 8
@.str.190 = private unnamed_addr constant [188 x i8] c"Expression 'AlsaRestart( self )' failed in 'generated/home/dtcxzyw/WorkSpace/Projects/compilers/llvm-opt-benchmark/bench/portaudio/portaudio/src/hostapi/alsa/pa_linux_alsa.c', line: 3355\0A\00", align 1
@.str.191 = private unnamed_addr constant [206 x i8] c"Expression 'PaUnixMutex_Lock( &stream->stateMtx )' failed in 'generated/home/dtcxzyw/WorkSpace/Projects/compilers/llvm-opt-benchmark/bench/portaudio/portaudio/src/hostapi/alsa/pa_linux_alsa.c', line: 3287\0A\00", align 1
@.str.192 = private unnamed_addr constant [190 x i8] c"Expression 'AlsaStop( stream, 0 )' failed in 'generated/home/dtcxzyw/WorkSpace/Projects/compilers/llvm-opt-benchmark/bench/portaudio/portaudio/src/hostapi/alsa/pa_linux_alsa.c', line: 3288\0A\00", align 1
@.str.193 = private unnamed_addr constant [191 x i8] c"Expression 'AlsaStart( stream, 0 )' failed in 'generated/home/dtcxzyw/WorkSpace/Projects/compilers/llvm-opt-benchmark/bench/portaudio/portaudio/src/hostapi/alsa/pa_linux_alsa.c', line: 3289\0A\00", align 1
@.str.194 = private unnamed_addr constant [208 x i8] c"Expression 'PaUnixMutex_Unlock( &stream->stateMtx )' failed in 'generated/home/dtcxzyw/WorkSpace/Projects/compilers/llvm-opt-benchmark/bench/portaudio/portaudio/src/hostapi/alsa/pa_linux_alsa.c', line: 3294\0A\00", align 1

; Function Attrs: nounwind uwtable
define internal i32 @AlsaRestart(ptr noundef %0) #0 {
  %2 = alloca ptr, align 8
  %3 = alloca i32, align 4
  store ptr %0, ptr %2, align 8, !tbaa !38
  call void @llvm.lifetime.start.p0(i64 4, ptr %3) #17
  store i32 0, ptr %3, align 4, !tbaa !8
  br label %4

4:                                                ; preds = %1
  %5 = load ptr, ptr %2, align 8, !tbaa !38
  %6 = getelementptr inbounds nuw %struct.PaAlsaStream, ptr %5, i32 0, i32 15
  %7 = call i32 @PaUnixMutex_Lock(ptr noundef %6)
  store i32 %7, ptr @paUtilErr_, align 4, !tbaa !8
  %8 = icmp slt i32 %7, 0
  %9 = zext i1 %8 to i32
  %10 = sext i32 %9 to i64
  %11 = call i64 @llvm.expect.i64(i64 %10, i64 0)
  %12 = icmp ne i64 %11, 0
  br i1 %12, label %13, label %15

13:                                               ; preds = %4
  call void (ptr, ...) @PaUtil_DebugPrint(ptr noundef @.str.191)
  %14 = load i32, ptr @paUtilErr_, align 4, !tbaa !8
  store i32 %14, ptr %3, align 4, !tbaa !8
  br label %44

15:                                               ; preds = %4
  br label %16

16:                                               ; preds = %15
  br label %17

17:                                               ; preds = %16
  br label %18

18:                                               ; preds = %17
  %19 = load ptr, ptr %2, align 8, !tbaa !38
  %20 = call i32 @AlsaStop(ptr noundef %19, i32 noundef 0)
  store i32 %20, ptr @paUtilErr_, align 4, !tbaa !8
  %21 = icmp slt i32 %20, 0
  %22 = zext i1 %21 to i32
  %23 = sext i32 %22 to i64
  %24 = call i64 @llvm.expect.i64(i64 %23, i64 0)
  %25 = icmp ne i64 %24, 0
  br i1 %25, label %26, label %28

26:                                               ; preds = %18
  call void (ptr, ...) @PaUtil_DebugPrint(ptr noundef @.str.192)
  %27 = load i32, ptr @paUtilErr_, align 4, !tbaa !8
  store i32 %27, ptr %3, align 4, !tbaa !8
  br label %44

28:                                               ; preds = %18
  br label %29

29:                                               ; preds = %28
  br label %30

30:                                               ; preds = %29
  br label %31

31:                                               ; preds = %30
  %32 = load ptr, ptr %2, align 8, !tbaa !38
  %33 = call i32 @AlsaStart(ptr noundef %32, i32 noundef 0)
  store i32 %33, ptr @paUtilErr_, align 4, !tbaa !8
  %34 = icmp slt i32 %33, 0
  %35 = zext i1 %34 to i32
  %36 = sext i32 %35 to i64
  %37 = call i64 @llvm.expect.i64(i64 %36, i64 0)
  %38 = icmp ne i64 %37, 0
  br i1 %38, label %39, label %41

39:                                               ; preds = %31
  call void (ptr, ...) @PaUtil_DebugPrint(ptr noundef @.str.193)
  %40 = load i32, ptr @paUtilErr_, align 4, !tbaa !8
  store i32 %40, ptr %3, align 4, !tbaa !8
  br label %44

41:                                               ; preds = %31
  br label %42

42:                                               ; preds = %41
  br label %43

43:                                               ; preds = %42
  br label %44

44:                                               ; preds = %54, %43, %39, %26, %13
  br label %45

45:                                               ; preds = %44
  %46 = load ptr, ptr %2, align 8, !tbaa !38
  %47 = getelementptr inbounds nuw %struct.PaAlsaStream, ptr %46, i32 0, i32 15
  %48 = call i32 @PaUnixMutex_Unlock(ptr noundef %47)
  store i32 %48, ptr @paUtilErr_, align 4, !tbaa !8
  %49 = icmp slt i32 %48, 0
  %50 = zext i1 %49 to i32
  %51 = sext i32 %50 to i64
  %52 = call i64 @llvm.expect.i64(i64 %51, i64 0)
  %53 = icmp ne i64 %52, 0
  br i1 %53, label %54, label %56

54:                                               ; preds = %45
  call void (ptr, ...) @PaUtil_DebugPrint(ptr noundef @.str.194)
  %55 = load i32, ptr @paUtilErr_, align 4, !tbaa !8
  store i32 %55, ptr %3, align 4, !tbaa !8
  br label %44

56:                                               ; preds = %45
  br label %57

57:                                               ; preds = %56
  br label %58

58:                                               ; preds = %57
  %59 = load i32, ptr %3, align 4, !tbaa !8
  call void @llvm.lifetime.end.p0(i64 4, ptr %3) #17
  ret i32 %59
}

; Function Attrs: nounwind uwtable
define internal double @StatusToTime(ptr noundef %0, i32 noundef %1, ptr noundef %2) #0 {
  %4 = alloca ptr, align 8
  %5 = alloca i32, align 4
  %6 = alloca ptr, align 8
  %7 = alloca %struct.timespec, align 8
  store ptr %0, ptr %4, align 8, !tbaa !98
  store i32 %1, ptr %5, align 4, !tbaa !8
  store ptr %2, ptr %6, align 8, !tbaa !206
  call void @llvm.lifetime.start.p0(i64 16, ptr %7) #17
  %8 = load i32, ptr %5, align 4, !tbaa !8
  %9 = icmp ne i32 %8, 0
  br i1 %9, label %10, label %13

10:                                               ; preds = %3
  %11 = load ptr, ptr @alsa_snd_pcm_status_get_trigger_htstamp, align 8, !tbaa !32
  %12 = load ptr, ptr %4, align 8, !tbaa !98
  call void %11(ptr noundef %12, ptr noundef %7)
  br label %16

13:                                               ; preds = %3
  %14 = load ptr, ptr @alsa_snd_pcm_status_get_htstamp, align 8, !tbaa !32
  %15 = load ptr, ptr %4, align 8, !tbaa !98
  call void %14(ptr noundef %15, ptr noundef %7)
  br label %16

16:                                               ; preds = %13, %10
  %17 = load ptr, ptr %6, align 8, !tbaa !206
  %18 = icmp ne ptr %17, null
  br i1 %18, label %19, label %24

19:                                               ; preds = %16
  %20 = load ptr, ptr @alsa_snd_pcm_status_get_delay, align 8, !tbaa !32
  %21 = load ptr, ptr %4, align 8, !tbaa !98
  %22 = call i64 %20(ptr noundef %21)
  %23 = load ptr, ptr %6, align 8, !tbaa !206
  store i64 %22, ptr %23, align 8, !tbaa !37
  br label %24

24:                                               ; preds = %19, %16
  %25 = getelementptr inbounds nuw %struct.timespec, ptr %7, i32 0, i32 0
  %26 = load i64, ptr %25, align 8, !tbaa !222
  %27 = sitofp i64 %26 to double
  %28 = getelementptr inbounds nuw %struct.timespec, ptr %7, i32 0, i32 1
  %29 = load i64, ptr %28, align 8, !tbaa !224
  %30 = sitofp i64 %29 to double
  %31 = call double @llvm.fmuladd.f64(double %30, double 1.000000e-09, double %27)
  call void @llvm.lifetime.end.p0(i64 16, ptr %7) #17
  ret double %31
}

; Function Attrs: nounwind uwtable
define internal i32 @PaAlsaStream_HandleXrun(ptr noundef %0) #0 {
  %2 = alloca ptr, align 8
  %3 = alloca i32, align 4
  %4 = alloca ptr, align 8
  %5 = alloca double, align 8
  %6 = alloca %struct.timeval, align 8
  %7 = alloca i32, align 4
  %8 = alloca i64, align 8
  store ptr %0, ptr %2, align 8, !tbaa !38
  call void @llvm.lifetime.start.p0(i64 4, ptr %3) #17
  store i32 0, ptr %3, align 4, !tbaa !8
  call void @llvm.lifetime.start.p0(i64 8, ptr %4) #17
  call void @llvm.lifetime.start.p0(i64 8, ptr %5) #17
  %9 = call double @PaUtil_GetTime()
  store double %9, ptr %5, align 8, !tbaa !35
  call void @llvm.lifetime.start.p0(i64 16, ptr %6) #17
  call void @llvm.lifetime.start.p0(i64 4, ptr %7) #17
  store i32 0, ptr %7, align 4, !tbaa !8
  br label %10

10:                                               ; preds = %1
  call void @llvm.lifetime.start.p0(i64 8, ptr %8) #17
  %11 = load ptr, ptr @alsa_snd_pcm_status_sizeof, align 8, !tbaa !32
  %12 = call i64 %11()
  store i64 %12, ptr %8, align 8, !tbaa !37
  %13 = load i64, ptr %8, align 8, !tbaa !37
  %14 = alloca i8, i64 %13, align 16
  store ptr %14, ptr %4, align 8, !tbaa !98
  %15 = load ptr, ptr %4, align 8, !tbaa !98
  %16 = load i64, ptr %8, align 8, !tbaa !37
  call void @llvm.memset.p0.i64(ptr align 1 %15, i8 0, i64 %16, i1 false)
  call void @llvm.lifetime.end.p0(i64 8, ptr %8) #17
  br label %17

17:                                               ; preds = %10
  br label %18

18:                                               ; preds = %17
  %19 = load ptr, ptr %2, align 8, !tbaa !38
  %20 = getelementptr inbounds nuw %struct.PaAlsaStream, ptr %19, i32 0, i32 20
  %21 = getelementptr inbounds nuw %struct.PaAlsaStreamComponent, ptr %20, i32 0, i32 11
  %22 = load ptr, ptr %21, align 8, !tbaa !101
  %23 = icmp ne ptr %22, null
  br i1 %23, label %24, label %68

24:                                               ; preds = %18
  %25 = load ptr, ptr @alsa_snd_pcm_status, align 8, !tbaa !32
  %26 = load ptr, ptr %2, align 8, !tbaa !38
  %27 = getelementptr inbounds nuw %struct.PaAlsaStream, ptr %26, i32 0, i32 20
  %28 = getelementptr inbounds nuw %struct.PaAlsaStreamComponent, ptr %27, i32 0, i32 11
  %29 = load ptr, ptr %28, align 8, !tbaa !101
  %30 = load ptr, ptr %4, align 8, !tbaa !98
  %31 = call i32 %25(ptr noundef %29, ptr noundef %30)
  %32 = load ptr, ptr @alsa_snd_pcm_status_get_state, align 8, !tbaa !32
  %33 = load ptr, ptr %4, align 8, !tbaa !98
  %34 = call i32 %32(ptr noundef %33)
  %35 = icmp eq i32 %34, 4
  br i1 %35, label %36, label %67

36:                                               ; preds = %24
  %37 = load ptr, ptr @alsa_snd_pcm_status_get_trigger_tstamp, align 8, !tbaa !32
  %38 = load ptr, ptr %4, align 8, !tbaa !98
  call void %37(ptr noundef %38, ptr noundef %6)
  %39 = load double, ptr %5, align 8, !tbaa !35
  %40 = load ptr, ptr %4, align 8, !tbaa !98
  %41 = call double @StatusToTime(ptr noundef %40, i32 noundef 1, ptr noundef null)
  %42 = fsub double %39, %41
  %43 = fmul double %42, 1.000000e+03
  %44 = load ptr, ptr %2, align 8, !tbaa !38
  %45 = getelementptr inbounds nuw %struct.PaAlsaStream, ptr %44, i32 0, i32 17
  store double %43, ptr %45, align 8, !tbaa !108
  %46 = load ptr, ptr %2, align 8, !tbaa !38
  %47 = getelementptr inbounds nuw %struct.PaAlsaStream, ptr %46, i32 0, i32 20
  %48 = getelementptr inbounds nuw %struct.PaAlsaStreamComponent, ptr %47, i32 0, i32 5
  %49 = load i32, ptr %48, align 8, !tbaa !195
  %50 = icmp ne i32 %49, 0
  br i1 %50, label %63, label %51

51:                                               ; preds = %36
  %52 = load ptr, ptr @alsa_snd_pcm_recover, align 8, !tbaa !32
  %53 = load ptr, ptr %2, align 8, !tbaa !38
  %54 = getelementptr inbounds nuw %struct.PaAlsaStream, ptr %53, i32 0, i32 20
  %55 = getelementptr inbounds nuw %struct.PaAlsaStreamComponent, ptr %54, i32 0, i32 11
  %56 = load ptr, ptr %55, align 8, !tbaa !101
  %57 = call i32 %52(ptr noundef %56, i32 noundef -32, i32 noundef 0)
  %58 = icmp slt i32 %57, 0
  br i1 %58, label %59, label %62

59:                                               ; preds = %51
  %60 = load i32, ptr %7, align 4, !tbaa !8
  %61 = add nsw i32 %60, 1
  store i32 %61, ptr %7, align 4, !tbaa !8
  br label %62

62:                                               ; preds = %59, %51
  br label %66

63:                                               ; preds = %36
  %64 = load i32, ptr %7, align 4, !tbaa !8
  %65 = add nsw i32 %64, 1
  store i32 %65, ptr %7, align 4, !tbaa !8
  br label %66

66:                                               ; preds = %63, %62
  br label %67

67:                                               ; preds = %66, %24
  br label %68

68:                                               ; preds = %67, %18
  %69 = load ptr, ptr %2, align 8, !tbaa !38
  %70 = getelementptr inbounds nuw %struct.PaAlsaStream, ptr %69, i32 0, i32 19
  %71 = getelementptr inbounds nuw %struct.PaAlsaStreamComponent, ptr %70, i32 0, i32 11
  %72 = load ptr, ptr %71, align 8, !tbaa !100
  %73 = icmp ne ptr %72, null
  br i1 %73, label %74, label %116

74:                                               ; preds = %68
  %75 = load ptr, ptr @alsa_snd_pcm_status, align 8, !tbaa !32
  %76 = load ptr, ptr %2, align 8, !tbaa !38
  %77 = getelementptr inbounds nuw %struct.PaAlsaStream, ptr %76, i32 0, i32 19
  %78 = getelementptr inbounds nuw %struct.PaAlsaStreamComponent, ptr %77, i32 0, i32 11
  %79 = load ptr, ptr %78, align 8, !tbaa !100
  %80 = load ptr, ptr %4, align 8, !tbaa !98
  %81 = call i32 %75(ptr noundef %79, ptr noundef %80)
  %82 = load ptr, ptr @alsa_snd_pcm_status_get_state, align 8, !tbaa !32
  %83 = load ptr, ptr %4, align 8, !tbaa !98
  %84 = call i32 %82(ptr noundef %83)
  %85 = icmp eq i32 %84, 4
  br i1 %85, label %86, label %115

86:                                               ; preds = %74
  %87 = load double, ptr %5, align 8, !tbaa !35
  %88 = load ptr, ptr %4, align 8, !tbaa !98
  %89 = call double @StatusToTime(ptr noundef %88, i32 noundef 1, ptr noundef null)
  %90 = fsub double %87, %89
  %91 = fmul double %90, 1.000000e+03
  %92 = load ptr, ptr %2, align 8, !tbaa !38
  %93 = getelementptr inbounds nuw %struct.PaAlsaStream, ptr %92, i32 0, i32 18
  store double %91, ptr %93, align 8, !tbaa !103
  %94 = load ptr, ptr %2, align 8, !tbaa !38
  %95 = getelementptr inbounds nuw %struct.PaAlsaStream, ptr %94, i32 0, i32 19
  %96 = getelementptr inbounds nuw %struct.PaAlsaStreamComponent, ptr %95, i32 0, i32 5
  %97 = load i32, ptr %96, align 8, !tbaa !221
  %98 = icmp ne i32 %97, 0
  br i1 %98, label %111, label %99

99:                                               ; preds = %86
  %100 = load ptr, ptr @alsa_snd_pcm_recover, align 8, !tbaa !32
  %101 = load ptr, ptr %2, align 8, !tbaa !38
  %102 = getelementptr inbounds nuw %struct.PaAlsaStream, ptr %101, i32 0, i32 19
  %103 = getelementptr inbounds nuw %struct.PaAlsaStreamComponent, ptr %102, i32 0, i32 11
  %104 = load ptr, ptr %103, align 8, !tbaa !100
  %105 = call i32 %100(ptr noundef %104, i32 noundef -32, i32 noundef 0)
  %106 = icmp slt i32 %105, 0
  br i1 %106, label %107, label %110

107:                                              ; preds = %99
  %108 = load i32, ptr %7, align 4, !tbaa !8
  %109 = add nsw i32 %108, 1
  store i32 %109, ptr %7, align 4, !tbaa !8
  br label %110

110:                                              ; preds = %107, %99
  br label %114

111:                                              ; preds = %86
  %112 = load i32, ptr %7, align 4, !tbaa !8
  %113 = add nsw i32 %112, 1
  store i32 %113, ptr %7, align 4, !tbaa !8
  br label %114

114:                                              ; preds = %111, %110
  br label %115

115:                                              ; preds = %114, %74
  br label %116

116:                                              ; preds = %115, %68
  %117 = load i32, ptr %7, align 4, !tbaa !8
  %118 = icmp ne i32 %117, 0
  br i1 %118, label %119, label %133

119:                                              ; preds = %116
  br label %120

120:                                              ; preds = %119
  %121 = load ptr, ptr %2, align 8, !tbaa !38
  %122 = call i32 @AlsaRestart(ptr noundef %121)
  store i32 %122, ptr @paUtilErr_, align 4, !tbaa !8
  %123 = icmp slt i32 %122, 0
  %124 = zext i1 %123 to i32
  %125 = sext i32 %124 to i64
  %126 = call i64 @llvm.expect.i64(i64 %125, i64 0)
  %127 = icmp ne i64 %126, 0
  br i1 %127, label %128, label %130

128:                                              ; preds = %120
  call void (ptr, ...) @PaUtil_DebugPrint(ptr noundef @.str.190)
  %129 = load i32, ptr @paUtilErr_, align 4, !tbaa !8
  store i32 %129, ptr %3, align 4, !tbaa !8
  br label %136

130:                                              ; preds = %120
  br label %131

131:                                              ; preds = %130
  br label %132

132:                                              ; preds = %131
  br label %133

133:                                              ; preds = %132, %116
  br label %134

134:                                              ; preds = %136, %133
  %135 = load i32, ptr %3, align 4, !tbaa !8
  call void @llvm.lifetime.end.p0(i64 4, ptr %7) #17
  call void @llvm.lifetime.end.p0(i64 16, ptr %6) #17
  call void @llvm.lifetime.end.p0(i64 8, ptr %5) #17
  call void @llvm.lifetime.end.p0(i64 8, ptr %4) #17
  call void @llvm.lifetime.end.p0(i64 4, ptr %3) #17
  ret i32 %135

136:                                              ; preds = %128
  br label %134
}