; Function Attrs: nounwind uwtable
define internal fastcc i32 @PaAlsaStream_HandleXrun(ptr noundef %0) unnamed_addr #2 {
  %2 = alloca %struct.timespec, align 8
  %3 = alloca %struct.timespec, align 8
  %4 = alloca %struct.timeval, align 8
  %5 = tail call double @PaUtil_GetTime() #25
  call void @llvm.lifetime.start.p0(i64 16, ptr nonnull %4) #25
  %6 = tail call i64 @snd_pcm_status_sizeof() #25, !callees !128
  %7 = alloca i8, i64 %6, align 16
  call void @llvm.memset.p0.i64(ptr nonnull align 16 %7, i8 0, i64 %6, i1 false)
  %8 = getelementptr inbounds nuw i8, ptr %0, i64 832
  %9 = load ptr, ptr %8, align 8, !tbaa !130
  %.not = icmp eq ptr %9, null
  br i1 %.not, label %30, label %10

10:                                               ; preds = %1
  %11 = call i32 @snd_pcm_status(ptr noundef nonnull %9, ptr noundef nonnull %7) #25, !callees !257
  %12 = call i32 @snd_pcm_status_get_state(ptr noundef nonnull %7) #25, !callees !281
  %13 = icmp eq i32 %12, 4
  br i1 %13, label %14, label %30

14:                                               ; preds = %10
  call void @snd_pcm_status_get_trigger_tstamp(ptr noundef nonnull %7, ptr noundef nonnull %4) #25, !callees !282
  call void @llvm.lifetime.start.p0(i64 16, ptr nonnull %3) #25
  call void @snd_pcm_status_get_trigger_htstamp(ptr noundef nonnull %7, ptr noundef nonnull %3) #25, !callees !283
  %15 = load i64, ptr %3, align 8, !tbaa !132
  %16 = sitofp i64 %15 to double
  %17 = getelementptr inbounds nuw i8, ptr %3, i64 8
  %18 = load i64, ptr %17, align 8, !tbaa !134
  %19 = sitofp i64 %18 to double
  %20 = call double @llvm.fmuladd.f64(double %19, double 1.000000e-09, double %16)
  call void @llvm.lifetime.end.p0(i64 16, ptr nonnull %3) #25
  %21 = fsub double %5, %20
  %22 = fmul double %21, 1.000000e+03
  %23 = getelementptr inbounds nuw i8, ptr %0, i64 632
  store double %22, ptr %23, align 8, !tbaa !141
  %24 = getelementptr inbounds nuw i8, ptr %0, i64 800
  %25 = load i32, ptr %24, align 8, !tbaa !198
  %.not31 = icmp eq i32 %25, 0
  br i1 %.not31, label %26, label %30

26:                                               ; preds = %14
  %27 = load ptr, ptr %8, align 8, !tbaa !130
  %28 = call i32 @snd_pcm_recover(ptr noundef %27, i32 noundef -32, i32 noundef 0) #25, !callees !284
  %29 = icmp sgt i32 %28, -1
  br label %30

30:                                               ; preds = %26, %14, %10, %1
  %.028 = phi i1 [ true, %10 ], [ true, %1 ], [ %29, %26 ], [ false, %14 ]
  %31 = getelementptr inbounds nuw i8, ptr %0, i64 704
  %32 = load ptr, ptr %31, align 8, !tbaa !129
  %.not32 = icmp eq ptr %32, null
  br i1 %.not32, label %53, label %33

33:                                               ; preds = %30
  %34 = call i32 @snd_pcm_status(ptr noundef nonnull %32, ptr noundef nonnull %7) #25, !callees !257
  %35 = call i32 @snd_pcm_status_get_state(ptr noundef nonnull %7) #25, !callees !281
  %36 = icmp eq i32 %35, 4
  br i1 %36, label %37, label %53

37:                                               ; preds = %33
  call void @llvm.lifetime.start.p0(i64 16, ptr nonnull %2) #25
  call void @snd_pcm_status_get_trigger_htstamp(ptr noundef nonnull %7, ptr noundef nonnull %2) #25, !callees !283
  %38 = load i64, ptr %2, align 8, !tbaa !132
  %39 = sitofp i64 %38 to double
  %40 = getelementptr inbounds nuw i8, ptr %2, i64 8
  %41 = load i64, ptr %40, align 8, !tbaa !134
  %42 = sitofp i64 %41 to double
  %43 = call double @llvm.fmuladd.f64(double %42, double 1.000000e-09, double %39)
  call void @llvm.lifetime.end.p0(i64 16, ptr nonnull %2) #25
  %44 = fsub double %5, %43
  %45 = fmul double %44, 1.000000e+03
  %46 = getelementptr inbounds nuw i8, ptr %0, i64 640
  store double %45, ptr %46, align 8, !tbaa !135
  %47 = getelementptr inbounds nuw i8, ptr %0, i64 672
  %48 = load i32, ptr %47, align 8, !tbaa !285
  %.not33 = icmp eq i32 %48, 0
  br i1 %.not33, label %49, label %.thread

49:                                               ; preds = %37
  %50 = load ptr, ptr %31, align 8, !tbaa !129
  %51 = call i32 @snd_pcm_recover(ptr noundef %50, i32 noundef -32, i32 noundef 0) #25, !callees !284
  %52 = icmp sgt i32 %51, -1
  %or.cond = select i1 %52, i1 %.028, i1 false
  br i1 %or.cond, label %72, label %.thread

53:                                               ; preds = %33, %30
  br i1 %.028, label %72, label %.thread

.thread:                                          ; preds = %49, %37, %53
  %54 = getelementptr inbounds nuw i8, ptr %0, i64 584
  %55 = call i32 @PaUnixMutex_Lock(ptr noundef nonnull %54) #25
  store i32 %55, ptr @paUtilErr_, align 4, !tbaa !3
  %56 = icmp slt i32 %55, 0
  br i1 %56, label %.preheader.sink.split.i, label %57, !prof !9

57:                                               ; preds = %.thread
  %58 = call fastcc i32 @AlsaStop(ptr noundef nonnull %0)
  store i32 %58, ptr @paUtilErr_, align 4, !tbaa !3
  %59 = icmp slt i32 %58, 0
  br i1 %59, label %.preheader.sink.split.i, label %60, !prof !9

60:                                               ; preds = %57
  %61 = call fastcc i32 @AlsaStart(ptr noundef nonnull %0)
  store i32 %61, ptr @paUtilErr_, align 4, !tbaa !3
  %62 = icmp slt i32 %61, 0
  br i1 %62, label %.preheader.sink.split.i, label %.preheader.i, !prof !9

.preheader.sink.split.i:                          ; preds = %60, %57, %.thread
  %.str.191.sink.i = phi ptr [ @.str.191, %.thread ], [ @.str.192, %57 ], [ @.str.193, %60 ]
  call void (ptr, ...) @PaUtil_DebugPrint(ptr noundef nonnull %.str.191.sink.i) #25
  %63 = load i32, ptr @paUtilErr_, align 4, !tbaa !3
  br label %.preheader.i

.preheader.i:                                     ; preds = %.preheader.sink.split.i, %60
  %.0.ph.i = phi i32 [ 0, %60 ], [ %63, %.preheader.sink.split.i ]
  %64 = call i32 @PaUnixMutex_Unlock(ptr noundef nonnull %54) #25
  store i32 %64, ptr @paUtilErr_, align 4, !tbaa !3
  %65 = icmp slt i32 %64, 0
  br i1 %65, label %.lr.ph.i, label %AlsaRestart.exit, !prof !255

.lr.ph.i:                                         ; preds = %.preheader.i, %.lr.ph.i
  call void (ptr, ...) @PaUtil_DebugPrint(ptr noundef nonnull @.str.194) #25
  %66 = load i32, ptr @paUtilErr_, align 4, !tbaa !3
  %67 = call i32 @PaUnixMutex_Unlock(ptr noundef nonnull %54) #25
  store i32 %67, ptr @paUtilErr_, align 4, !tbaa !3
  %68 = icmp slt i32 %67, 0
  br i1 %68, label %.lr.ph.i, label %AlsaRestart.exit, !prof !256

AlsaRestart.exit:                                 ; preds = %.lr.ph.i, %.preheader.i
  %.0.lcssa.i = phi i32 [ %.0.ph.i, %.preheader.i ], [ %66, %.lr.ph.i ]
  store i32 %.0.lcssa.i, ptr @paUtilErr_, align 4, !tbaa !3
  %69 = icmp slt i32 %.0.lcssa.i, 0
  br i1 %69, label %70, label %72, !prof !9

70:                                               ; preds = %AlsaRestart.exit
  call void (ptr, ...) @PaUtil_DebugPrint(ptr noundef nonnull @.str.190) #25
  %71 = load i32, ptr @paUtilErr_, align 4, !tbaa !3
  br label %72

72:                                               ; preds = %49, %53, %AlsaRestart.exit, %70
  %.0 = phi i32 [ %71, %70 ], [ 0, %AlsaRestart.exit ], [ 0, %53 ], [ 0, %49 ]
  call void @llvm.lifetime.end.p0(i64 16, ptr nonnull %4) #25
  ret i32 %.0
}